target datalayout = "e-m:e-p270:32:32-p271:32:32-p272:64:64-i64:64-i128:128-f80:128-n8:16:32:64-S128"
target triple = "x86_64-pc-linux-gnu"

%struct.nstime_t = type { i64, i32 }
%struct._address = type { i32, i32, ptr, ptr }
%struct._conversation_item_t = type { ptr, %struct._address, %struct._address, i32, i32, i32, i32, i64, i64, i64, i64, i64, i64, i64, i64, %struct.nstime_t, %struct.nstime_t, %struct.nstime_t, i8, %struct._conversation_extension_tcp_t }
%struct._conversation_extension_tcp_t = type { i64 }

@.str.20 = private unnamed_addr constant [9 x i8] c"ipv6.src\00", align 1
@.str.89 = private unnamed_addr constant [9 x i8] c"ipv6.dst\00", align 1
@.str.140 = private unnamed_addr constant [10 x i8] c"ipv6.addr\00", align 1
@.str.891 = private unnamed_addr constant [8 x i8] c"INVALID\00", align 1

; Function Attrs: nounwind null_pointer_is_valid sspstrong uwtable
define internal ptr @ipv6_conv_get_filter_type(ptr noundef %0, i32 noundef %1) #3 {
  %3 = alloca ptr, align 8
  %4 = alloca ptr, align 8
  %5 = alloca i32, align 4
  store ptr %0, ptr %4, align 8
  store i32 %1, ptr %5, align 4
  %6 = load i32, ptr %5, align 4
  %7 = icmp eq i32 %6, 0
  br i1 %7, label %8, label %15

8:                                                ; preds = %2
  %9 = load ptr, ptr %4, align 8
  %10 = getelementptr inbounds nuw %struct._conversation_item_t, ptr %9, i32 0, i32 1
  %11 = getelementptr inbounds nuw %struct._address, ptr %10, i32 0, i32 0
  %12 = load i32, ptr %11, align 8
  %13 = icmp eq i32 %12, 3
  br i1 %13, label %14, label %15

14:                                               ; preds = %8
  store ptr @.str.20, ptr %3, align 8
  br label %36

15:                                               ; preds = %8, %2
  %16 = load i32, ptr %5, align 4
  %17 = icmp eq i32 %16, 1
  br i1 %17, label %18, label %25

18:                                               ; preds = %15
  %19 = load ptr, ptr %4, align 8
  %20 = getelementptr inbounds nuw %struct._conversation_item_t, ptr %19, i32 0, i32 2
  %21 = getelementptr inbounds nuw %struct._address, ptr %20, i32 0, i32 0
  %22 = load i32, ptr %21, align 8
  %23 = icmp eq i32 %22, 3
  br i1 %23, label %24, label %25

24:                                               ; preds = %18
  store ptr @.str.89, ptr %3, align 8
  br label %36

25:                                               ; preds = %18, %15
  %26 = load i32, ptr %5, align 4
  %27 = icmp eq i32 %26, 2
  br i1 %27, label %28, label %35

28:                                               ; preds = %25
  %29 = load ptr, ptr %4, align 8
  %30 = getelementptr inbounds nuw %struct._conversation_item_t, ptr %29, i32 0, i32 1
  %31 = getelementptr inbounds nuw %struct._address, ptr %30, i32 0, i32 0
  %32 = load i32, ptr %31, align 8
  %33 = icmp eq i32 %32, 3
  br i1 %33, label %34, label %35

34:                                               ; preds = %28
  store ptr @.str.140, ptr %3, align 8
  br label %36

35:                                               ; preds = %28, %25
  store ptr @.str.891, ptr %3, align 8
  br label %36

36:                                               ; preds = %35, %34, %24, %14
  %37 = load ptr, ptr %3, align 8
  ret ptr %37
}